Certificate:
    Data:
        Version: 1 (0x0)
        Serial Number: 64207 (0xfacf)
    Signature Algorithm: md5WithRSAEncryption
        Issuer: C=zg, ST=gd, L=gz, O=gs, OU=zz
        Validity
            Not Before: Feb 21 01:48:40 2020 GMT
            Not After : Feb 20 01:48:40 2021 GMT
        Subject: C=zg, ST=gd, O=gs, OU=zz, L=gz
        Subject Public Key Info:
            Public Key Algorithm: rsaEncryption
                Public-Key: (1024 bit)
                Modulus:
                    00:c7:ff:30:35:8b:d1:da:f2:99:03:d7:1a:19:7a:
                    99:d5:27:86:2e:0f:7f:ba:46:2a:14:2e:b1:8d:2d:
                    c1:bc:4b:8c:54:a6:05:b6:ee:5a:9a:17:17:fe:a9:
                    d3:7d:09:fb:5f:d1:45:3b:b8:fc:f7:cd:ff:97:ef:
                    58:02:07:da:d4:11:0e:7a:8f:ea:eb:4f:dd:28:67:
                    a4:61:89:d8:71:1f:eb:d2:e8:ff:0a:5f:c6:ef:73:
                    77:e0:9d:4a:6b:3a:b1:11:c2:b9:88:4a:b6:3a:a7:
                    24:3d:15:3b:c6:9e:86:6f:67:b6:33:77:a9:7e:7e:
                    5b:33:32:fd:c2:36:da:6e:59
                Exponent: 65537 (0x10001)
    Signature Algorithm: md5WithRSAEncryption
         a2:c5:90:49:85:b6:36:5d:6d:98:b8:09:a6:9e:66:0e:f2:0f:
         e2:87:be:3d:99:28:29:b1:db:21:36:4f:ec:b8:5a:4d:ef:a8:
         f8:63:b6:ac:bd:89:a0:bb:36:5e:35:b3:50:a8:c6:8b:1a:09:
         d8:4d:64:7e:9f:cb:48:aa:87:5a:44:bd:3f:d1:03:ac:e9:81:
         56:ff:12:c7:04:41:fd:5c:6a:76:f7:f1:f4:ba:e9:da:61:5c:
         69:0e:78:1b:97:4d:09:5b:69:a9:1b:00:86:67:1e:3b:96:08:
         d6:15:10:e0:dd:b1:db:31:b2:2b:7c:d1:74:f2:e0:f7:83:32:
         04:c3:2e:89:9e:64:3c:34:ce:fe:c4:a8:3a:e2:63:1d:9a:15:
         e8:3d:90:98:e0:66:44:ca:81:4b:d9:59:de:0f:cc:02:41:e5:
         c0:ce:f5:00:eb:82:ca:e4:86:91:d1:d6:f9:0f:83:df:0e:81:
         73:ad:9d:44:d2:c2:11:67:bd:00:d7:80:96:75:3e:7f:4e:be:
         68:71:a4:0c:39:11:6c:3b:59:8b:8c:e8:17:64:13:7e:01:2b:
         d5:55:bf:1b:f7:39:62:a7:3a:03:e8:65:79:de:f3:2d:a4:24:
         75:f4:34:1e:08:44:36:14:ef:c8:a7:bb:84:6a:16:7e:55:e1:
         ca:cd:7f:b5
-----BEGIN CERTIFICATE-----
MIICdDCCAVwCAwD6zzANBgkqhkiG9w0BAQQFADBBMQswCQYDVQQGEwJ6ZzELMAkG
A1UECAwCZ2QxCzAJBgNVBAcMAmd6MQswCQYDVQQKDAJnczELMAkGA1UECwwCenow
HhcNMjAwMjIxMDE0ODQwWhcNMjEwMjIwMDE0ODQwWjBBMQswCQYDVQQGEwJ6ZzEL
MAkGA1UECAwCZ2QxCzAJBgNVBAoMAmdzMQswCQYDVQQLDAJ6ejELMAkGA1UEBwwC
Z3owgZ8wDQYJKoZIhvcNAQEBBQADgY0AMIGJAoGBAMf/MDWL0drymQPXGhl6mdUn
hi4Pf7pGKhQusY0twbxLjFSmBbbuWpoXF/6p030J+1/RRTu4/PfN/5fvWAIH2tQR
DnqP6utP3ShnpGGJ2HEf69Lo/wpfxu9zd+CdSms6sRHCuYhKtjqnJD0VO8aehm9n
tjN3qX5+WzMy/cI22m5ZAgMBAAEwDQYJKoZIhvcNAQEEBQADggEBAKLFkEmFtjZd
bZi4CaaeZg7yD+KHvj2ZKCmx2yE2T+y4Wk3vqPhjtqy9iaC7Nl41s1CoxosaCdhN
ZH6fy0iqh1pEvT/RA6zpgVb/EscEQf1canb38fS66dphXGkOeBuXTQlbaakbAIZn
HjuWCNYVEODdsdsxsit80XTy4PeDMgTDLomeZDw0zv7EqDriYx2aFeg9kJjgZkTK
gUvZWd4PzAJB5cDO9QDrgsrkhpHR1vkPg98OgXOtnUTSwhFnvQDXgJZ1Pn9Ovmhx
pAw5EWw7WYuM6BdkE34BK9VVvxv3OWKnOgPoZXne8y2kJHX0NB4IRDYU78inu4Rq
Fn5V4crNf7U=
-----END CERTIFICATE-----
