Certificate:
    Data:
        Version: 1 (0x0)
        Serial Number: 64206 (0xface)
    Signature Algorithm: md5WithRSAEncryption
        Issuer: C=zg, ST=gd, L=gz, O=gs, OU=zz
        Validity
            Not Before: Feb 21 01:47:02 2020 GMT
            Not After : Feb 20 01:47:02 2021 GMT
        Subject: C=zg, ST=gd, O=gs, OU=zz, L=gz
        Subject Public Key Info:
            Public Key Algorithm: rsaEncryption
                Public-Key: (2048 bit)
                Modulus:
                    00:da:c9:16:66:64:ce:bd:6d:62:69:82:3e:77:44:
                    90:13:df:2e:b2:d0:15:ea:a9:ca:94:ce:38:08:fc:
                    63:15:c5:96:92:2d:51:c9:44:01:4d:11:7d:a7:d2:
                    c9:04:7d:b0:df:25:aa:94:a0:27:03:1a:15:4e:57:
                    3a:fb:d2:d3:97:ec:2c:d2:ae:a0:4f:f0:2b:9a:b6:
                    7d:57:6e:54:76:83:b8:ab:69:25:2a:6b:14:7f:4b:
                    d7:c1:70:cb:31:89:b0:d9:f7:91:ec:61:12:a4:5f:
                    3a:32:d2:e6:95:fb:6e:56:6d:ad:4c:30:2f:86:ea:
                    71:7d:61:3c:6f:f7:50:44:81:0e:da:60:b8:4b:b9:
                    1d:b8:1f:bf:07:2b:33:5d:10:fe:df:da:62:fc:12:
                    59:f9:d6:ec:8e:16:b3:4c:5a:f5:d1:eb:8f:be:2f:
                    ca:1a:2d:44:a2:21:9e:b8:9f:58:5a:2a:1b:bf:12:
                    b7:57:4f:3d:d2:1a:51:92:3e:47:9e:55:bb:3c:b2:
                    44:46:76:aa:14:f3:3b:de:b7:79:79:ee:7f:af:85:
                    fd:a6:51:23:63:6c:3d:8d:89:36:e3:da:e0:4b:7e:
                    24:27:5d:a6:3d:8a:83:dd:e4:d9:4a:0c:8c:83:19:
                    96:bc:b6:cb:49:56:f1:32:01:16:4f:2c:0e:f7:06:
                    1c:35
                Exponent: 65537 (0x10001)
    Signature Algorithm: md5WithRSAEncryption
         6d:f9:23:eb:db:74:32:c3:af:04:4f:c0:33:ec:ef:c5:d5:99:
         5c:da:ed:ed:10:c5:c6:99:65:b1:0b:19:38:8f:d1:56:cf:e5:
         d7:2b:3d:23:9a:52:28:73:1d:1c:a9:5a:57:a8:96:6b:2f:c1:
         0d:c9:18:36:2c:70:1f:19:cc:32:93:7e:fa:07:31:db:72:11:
         16:08:cb:dd:72:4f:0a:ef:26:b1:3d:90:80:0a:b5:3e:9e:dc:
         80:71:38:b8:e9:fb:9a:13:c5:f5:c3:9d:fe:ea:29:b3:54:64:
         34:a1:4a:e8:a9:b4:b8:64:b8:2a:1c:50:a8:3e:45:26:aa:b2:
         39:5b:59:e5:9e:0a:b2:ea:8a:64:70:99:30:78:a9:73:6d:9e:
         ed:eb:16:9b:75:f4:b7:06:63:23:e2:7a:4e:6e:d9:55:8d:95:
         69:02:a8:ba:6a:74:05:a7:45:62:1d:49:d8:68:eb:48:cc:26:
         eb:f4:84:80:a6:aa:41:e0:d9:d8:26:6b:26:36:75:01:33:9a:
         00:35:b1:e8:82:f0:e4:33:ed:8c:f5:f8:9d:0d:75:a6:1d:87:
         78:ce:99:52:20:5a:4b:65:ae:f9:fc:9d:5c:65:19:f3:13:ff:
         d0:59:07:0a:41:aa:d8:cb:8f:f2:2e:94:9d:81:d3:c5:50:1d:
         5b:a3:5d:5b
-----BEGIN CERTIFICATE-----
MIIC+DCCAeACAwD6zjANBgkqhkiG9w0BAQQFADBBMQswCQYDVQQGEwJ6ZzELMAkG
A1UECAwCZ2QxCzAJBgNVBAcMAmd6MQswCQYDVQQKDAJnczELMAkGA1UECwwCenow
HhcNMjAwMjIxMDE0NzAyWhcNMjEwMjIwMDE0NzAyWjBBMQswCQYDVQQGEwJ6ZzEL
MAkGA1UECAwCZ2QxCzAJBgNVBAoMAmdzMQswCQYDVQQLDAJ6ejELMAkGA1UEBwwC
Z3owggEiMA0GCSqGSIb3DQEBAQUAA4IBDwAwggEKAoIBAQDayRZmZM69bWJpgj53
RJAT3y6y0BXqqcqUzjgI/GMVxZaSLVHJRAFNEX2n0skEfbDfJaqUoCcDGhVOVzr7
0tOX7CzSrqBP8Cuatn1XblR2g7iraSUqaxR/S9fBcMsxibDZ95HsYRKkXzoy0uaV
+25Wba1MMC+G6nF9YTxv91BEgQ7aYLhLuR24H78HKzNdEP7f2mL8Eln51uyOFrNM
WvXR64++L8oaLUSiIZ64n1haKhu/ErdXTz3SGlGSPkeeVbs8skRGdqoU8zvet3l5
7n+vhf2mUSNjbD2NiTbj2uBLfiQnXaY9ioPd5NlKDIyDGZa8tstJVvEyARZPLA73
Bhw1AgMBAAEwDQYJKoZIhvcNAQEEBQADggEBAG35I+vbdDLDrwRPwDPs78XVmVza
7e0QxcaZZbELGTiP0VbP5dcrPSOaUihzHRypWleolmsvwQ3JGDYscB8ZzDKTfvoH
MdtyERYIy91yTwrvJrE9kIAKtT6e3IBxOLjp+5oTxfXDnf7qKbNUZDShSuiptLhk
uCocUKg+RSaqsjlbWeWeCrLqimRwmTB4qXNtnu3rFpt19LcGYyPiek5u2VWNlWkC
qLpqdAWnRWIdSdho60jMJuv0hICmqkHg2dgmayY2dQEzmgA1seiC8OQz7Yz1+J0N
daYdh3jOmVIgWktlrvn8nVxlGfMT/9BZBwpBqtjLj/IulJ2B08VQHVujXVs=
-----END CERTIFICATE-----
