Certificate:
    Data:
        Version: 1 (0x0)
        Serial Number: 64207 (0xfacf)
    Signature Algorithm: sha256WithRSAEncryption
        Issuer: C=zg, ST=gd, L=gz, O=gs, OU=zz
        Validity
            Not Before: Mar  5 02:44:04 2020 GMT
            Not After : Mar  5 02:44:04 2021 GMT
        Subject: C=zg, ST=gd, O=gs, OU=zz, L=gz
        Subject Public Key Info:
            Public Key Algorithm: rsaEncryption
                Public-Key: (1024 bit)
                Modulus:
                    00:d5:ef:55:f1:70:4e:40:dc:aa:aa:3e:df:32:66:
                    df:6c:d1:99:13:ab:7f:72:1c:f5:3b:d4:7a:67:54:
                    42:e7:9f:00:87:32:4b:8a:ac:ba:72:e8:8b:71:38:
                    58:4d:bb:a6:bc:f4:c6:ce:95:bf:1e:5a:d8:21:30:
                    de:89:63:d6:cf:79:98:b1:32:62:77:8e:91:e1:3b:
                    6c:4b:32:67:fd:41:8a:99:b4:bc:b9:4e:8b:2c:51:
                    ce:c5:a2:ae:f6:98:99:00:b7:e1:ef:4d:6a:16:8c:
                    cd:fd:69:9a:e2:ad:bc:20:56:41:e4:a4:45:8c:19:
                    2d:44:8a:f3:cb:84:f8:f1:6d
                Exponent: 65537 (0x10001)
    Signature Algorithm: sha256WithRSAEncryption
         3f:d0:fd:8d:17:64:9b:1c:45:d6:cc:cd:20:70:29:c6:d1:84:
         a9:a2:1a:da:c6:4c:3b:4b:cf:d3:b8:5f:89:c5:17:5f:51:28:
         69:07:ae:28:74:4d:52:1a:17:e2:ce:66:cc:83:7b:f4:54:2f:
         85:53:10:9a:66:5b:68:d6:03:5d:93:48:c1:14:ab:8b:c2:c6:
         bd:f0:9e:e2:eb:36:20:fe:f0:b0:4e:f0:49:a6:3c:af:4a:87:
         4c:b1:d4:b0:e1:0e:0f:5a:1b:fb:44:0e:0d:de:34:69:68:c1:
         01:2b:51:e8:2d:4c:57:dd:99:c3:c4:7e:9c:e5:91:e3:fc:19:
         03:1f:67:71:b4:95:5d:36:03:74:6c:71:c6:91:00:cf:61:5f:
         8a:04:3f:81:5d:5c:81:90:04:fa:ce:c0:ff:8a:56:ea:95:16:
         db:fe:b7:f1:e5:21:f8:80:e9:8f:da:24:52:83:dd:aa:f8:95:
         f5:cf:1c:00:6a:df:9a:43:9e:8c:cd:3a:83:c6:b2:98:09:ad:
         05:ce:d2:23:97:6a:0f:b0:b9:d8:28:2f:aa:3a:53:58:7a:2c:
         7e:67:29:04:55:6d:65:aa:ee:32:fa:0d:22:f5:00:79:7f:15:
         c9:a2:97:de:0b:dd:cb:1d:38:dc:bb:97:9b:be:03:4b:49:00:
         20:4e:ff:4f
-----BEGIN CERTIFICATE-----
MIICdDCCAVwCAwD6zzANBgkqhkiG9w0BAQsFADBBMQswCQYDVQQGEwJ6ZzELMAkG
A1UECAwCZ2QxCzAJBgNVBAcMAmd6MQswCQYDVQQKDAJnczELMAkGA1UECwwCenow
HhcNMjAwMzA1MDI0NDA0WhcNMjEwMzA1MDI0NDA0WjBBMQswCQYDVQQGEwJ6ZzEL
MAkGA1UECAwCZ2QxCzAJBgNVBAoMAmdzMQswCQYDVQQLDAJ6ejELMAkGA1UEBwwC
Z3owgZ8wDQYJKoZIhvcNAQEBBQADgY0AMIGJAoGBANXvVfFwTkDcqqo+3zJm32zR
mROrf3Ic9TvUemdUQuefAIcyS4qsunLoi3E4WE27prz0xs6Vvx5a2CEw3olj1s95
mLEyYneOkeE7bEsyZ/1Bipm0vLlOiyxRzsWirvaYmQC34e9NahaMzf1pmuKtvCBW
QeSkRYwZLUSK88uE+PFtAgMBAAEwDQYJKoZIhvcNAQELBQADggEBAD/Q/Y0XZJsc
RdbMzSBwKcbRhKmiGtrGTDtLz9O4X4nFF19RKGkHrih0TVIaF+LOZsyDe/RUL4VT
EJpmW2jWA12TSMEUq4vCxr3wnuLrNiD+8LBO8EmmPK9Kh0yx1LDhDg9aG/tEDg3e
NGlowQErUegtTFfdmcPEfpzlkeP8GQMfZ3G0lV02A3RsccaRAM9hX4oEP4FdXIGQ
BPrOwP+KVuqVFtv+t/HlIfiA6Y/aJFKD3ar4lfXPHABq35pDnozNOoPGspgJrQXO
0iOXag+wudgoL6o6U1h6LH5nKQRVbWWq7jL6DSL1AHl/Fcmil94L3csdONy7l5u+
A0tJACBO/08=
-----END CERTIFICATE-----
