Certificate:
    Data:
        Version: 1 (0x0)
        Serial Number: 64206 (0xface)
    Signature Algorithm: sha256WithRSAEncryption
        Issuer: C=zg, ST=gd, L=gz, O=gs, OU=zz
        Validity
            Not Before: Mar  5 02:43:12 2020 GMT
            Not After : Mar  5 02:43:12 2021 GMT
        Subject: C=zg, ST=gd, O=gs, OU=zz, L=gz
        Subject Public Key Info:
            Public Key Algorithm: rsaEncryption
                Public-Key: (2048 bit)
                Modulus:
                    00:cd:bf:b8:bc:95:5b:fc:96:09:b9:16:94:3d:ae:
                    af:c0:a6:8d:53:d5:0a:a8:4d:ae:7f:21:da:68:78:
                    21:c5:38:ee:5c:44:cc:de:70:9b:e2:a7:eb:11:e5:
                    ce:15:e7:c3:89:82:a4:5c:03:77:29:3f:8a:bf:39:
                    16:d9:6a:89:42:85:4e:ed:9b:61:e6:40:22:a6:fc:
                    c8:a2:05:e9:0d:56:d2:f6:55:d7:f4:01:2e:66:1a:
                    d3:2a:4d:2a:58:12:1c:39:a9:81:44:b0:e4:e6:37:
                    39:1c:29:d4:81:9c:4d:2e:e6:8c:49:ed:10:2a:b0:
                    1f:d5:0b:0f:71:5a:c9:1a:31:1a:9f:95:72:63:28:
                    65:3a:91:6d:82:36:e7:ab:fd:4a:83:d5:79:99:d9:
                    ee:a8:b3:84:c5:59:e2:ac:b9:27:bc:79:29:64:12:
                    33:a7:1f:64:d0:b6:ec:03:52:ea:b1:ea:45:14:6c:
                    84:9a:1b:3f:fa:4f:d6:93:97:c1:2d:82:af:f7:00:
                    92:ee:dc:5f:db:c3:5d:f0:8e:10:ad:ef:a4:22:35:
                    a2:1f:ca:c7:d3:32:50:c4:ff:3d:43:9b:d6:f3:80:
                    41:e1:21:70:4a:5c:c3:2e:ec:26:a1:f9:14:54:ff:
                    9d:52:e6:c6:cb:6c:c0:22:24:52:c0:0c:f7:40:74:
                    48:4d
                Exponent: 65537 (0x10001)
    Signature Algorithm: sha256WithRSAEncryption
         3d:2b:79:1c:25:ed:16:c6:d1:d7:56:50:48:93:2d:cd:81:9b:
         dc:c1:b7:b8:48:3b:39:83:d3:9e:9e:c1:a9:9c:d7:d6:0d:af:
         ee:7d:3f:58:dd:5f:a3:e2:b3:c0:d1:e6:ca:21:cf:63:30:f6:
         9c:00:28:16:5d:d5:94:91:3c:3c:ef:e2:51:9a:a2:f6:27:bb:
         09:98:66:1c:4c:17:fa:af:7a:ff:82:68:ac:d8:8e:7b:5d:01:
         39:b4:b2:4e:49:b1:47:f8:7f:e1:91:3d:54:ee:83:e1:ec:02:
         c6:6d:50:4f:21:83:f3:3c:e6:8c:22:45:24:3b:ea:3e:4f:c0:
         70:e3:0e:cc:bb:a8:15:2f:d9:13:28:0c:2d:29:97:c2:ed:23:
         d9:47:22:48:da:0f:6b:37:8e:ce:61:00:ad:ef:dc:e6:c2:54:
         9e:f5:75:77:44:5d:a1:87:c2:b2:36:e4:76:19:36:7a:35:1d:
         7b:da:95:d7:4e:e5:bc:20:e6:8e:28:a6:b7:8b:7b:dd:74:03:
         58:34:b9:e9:3f:c4:12:72:ce:ca:f2:5d:0f:30:3e:92:7e:3a:
         71:70:57:58:ba:38:46:08:37:0a:1b:c8:2f:5b:cc:52:78:0d:
         c5:5f:54:dc:6f:0a:1b:f8:da:24:b8:a4:2b:54:18:9c:01:27:
         a3:8f:ec:32
-----BEGIN CERTIFICATE-----
MIIC+DCCAeACAwD6zjANBgkqhkiG9w0BAQsFADBBMQswCQYDVQQGEwJ6ZzELMAkG
A1UECAwCZ2QxCzAJBgNVBAcMAmd6MQswCQYDVQQKDAJnczELMAkGA1UECwwCenow
HhcNMjAwMzA1MDI0MzEyWhcNMjEwMzA1MDI0MzEyWjBBMQswCQYDVQQGEwJ6ZzEL
MAkGA1UECAwCZ2QxCzAJBgNVBAoMAmdzMQswCQYDVQQLDAJ6ejELMAkGA1UEBwwC
Z3owggEiMA0GCSqGSIb3DQEBAQUAA4IBDwAwggEKAoIBAQDNv7i8lVv8lgm5FpQ9
rq/Apo1T1QqoTa5/IdpoeCHFOO5cRMzecJvip+sR5c4V58OJgqRcA3cpP4q/ORbZ
aolChU7tm2HmQCKm/MiiBekNVtL2Vdf0AS5mGtMqTSpYEhw5qYFEsOTmNzkcKdSB
nE0u5oxJ7RAqsB/VCw9xWskaMRqflXJjKGU6kW2CNuer/UqD1XmZ2e6os4TFWeKs
uSe8eSlkEjOnH2TQtuwDUuqx6kUUbISaGz/6T9aTl8Etgq/3AJLu3F/bw13wjhCt
76QiNaIfysfTMlDE/z1Dm9bzgEHhIXBKXMMu7Cah+RRU/51S5sbLbMAiJFLADPdA
dEhNAgMBAAEwDQYJKoZIhvcNAQELBQADggEBAD0reRwl7RbG0ddWUEiTLc2Bm9zB
t7hIOzmD056ewamc19YNr+59P1jdX6Pis8DR5sohz2Mw9pwAKBZd1ZSRPDzv4lGa
ovYnuwmYZhxMF/qvev+CaKzYjntdATm0sk5JsUf4f+GRPVTug+HsAsZtUE8hg/M8
5owiRSQ76j5PwHDjDsy7qBUv2RMoDC0pl8LtI9lHIkjaD2s3js5hAK3v3ObCVJ71
dXdEXaGHwrI25HYZNno1HXvalddO5bwg5o4opreLe910A1g0uek/xBJyzsryXQ8w
PpJ+OnFwV1i6OEYINwobyC9bzFJ4DcVfVNxvChv42iS4pCtUGJwBJ6OP7DI=
-----END CERTIFICATE-----
